ARM GAS  /var/folders/d_/x0b_rdwx29g9l484w35tgyc80000gn/T//cc7CT62k.s 			page 1


   1              		.syntax unified
   2              		.cpu cortex-m4
   3              		.eabi_attribute 27, 1
   4              		.eabi_attribute 28, 1
   5              		.fpu fpv4-sp-d16
   6              		.eabi_attribute 20, 1
   7              		.eabi_attribute 21, 1
   8              		.eabi_attribute 23, 3
   9              		.eabi_attribute 24, 1
  10              		.eabi_attribute 25, 1
  11              		.eabi_attribute 26, 1
  12              		.eabi_attribute 30, 4
  13              		.eabi_attribute 34, 1
  14              		.eabi_attribute 18, 4
  15              		.thumb
  16              		.syntax unified
  17              		.file	"sine.cpp"
  18              		.text
  19              	.Ltext0:
  20              		.cfi_sections	.debug_frame
  21              		.align	1
  22              		.global	_hook_init
  23              		.thumb
  24              		.thumb_func
  25              		.type	_hook_init, %function
  26              	_hook_init:
  27              	.LFB239:
  28              		.file 1 "sine.cpp"
  29              		.loc 1 61 0
  30              		.cfi_startproc
  31              		@ args = 0, pretend = 0, frame = 0
  32              		@ frame_needed = 0, uses_anonymous_args = 0
  33              		@ link register save eliminated.
  34              	.LVL0:
  35              		.loc 1 62 0
  36 0000 094B     		ldr	r3, .L2
  37 0002 0021     		movs	r1, #0
  38              	.LVL1:
  39              		.loc 1 64 0
  40 0004 4FF07E52 		mov	r2, #1065353216
  41              		.loc 1 62 0
  42 0008 1960     		str	r1, [r3]	@ float
  43              		.loc 1 63 0
  44 000a 5960     		str	r1, [r3, #4]	@ float
  45              		.loc 1 65 0
  46 000c D960     		str	r1, [r3, #12]	@ float
  47              		.loc 1 66 0
  48 000e 5961     		str	r1, [r3, #20]	@ float
  49 0010 1961     		str	r1, [r3, #16]	@ float
  50              		.loc 1 67 0
  51 0012 0021     		movs	r1, #0
  52              		.loc 1 64 0
  53 0014 9A60     		str	r2, [r3, #8]	@ float
  54              		.loc 1 67 0
  55 0016 1976     		strb	r1, [r3, #24]
  56              		.loc 1 68 0
  57 0018 DA61     		str	r2, [r3, #28]	@ float
ARM GAS  /var/folders/d_/x0b_rdwx29g9l484w35tgyc80000gn/T//cc7CT62k.s 			page 2


  58              		.loc 1 69 0
  59 001a 1A62     		str	r2, [r3, #32]	@ float
  60              		.loc 1 70 0
  61 001c 5A62     		str	r2, [r3, #36]	@ float
  62              		.loc 1 71 0
  63 001e 9A62     		str	r2, [r3, #40]	@ float
  64              		.loc 1 72 0
  65 0020 DA62     		str	r2, [r3, #44]	@ float
  66              		.loc 1 73 0
  67 0022 1A63     		str	r2, [r3, #48]	@ float
  68 0024 7047     		bx	lr
  69              	.L3:
  70 0026 00BF     		.align	2
  71              	.L2:
  72 0028 00000000 		.word	.LANCHOR0
  73              		.cfi_endproc
  74              	.LFE239:
  75              		.size	_hook_init, .-_hook_init
  76              		.align	1
  77              		.global	_hook_cycle
  78              		.thumb
  79              		.thumb_func
  80              		.type	_hook_cycle, %function
  81              	_hook_cycle:
  82              	.LFB240:
  83              		.loc 1 79 0
  84              		.cfi_startproc
  85              		@ args = 0, pretend = 0, frame = 0
  86              		@ frame_needed = 0, uses_anonymous_args = 0
  87              	.LVL2:
  88 002c F0B5     		push	{r4, r5, r6, r7, lr}
  89              		.cfi_def_cfa_offset 20
  90              		.cfi_offset 4, -20
  91              		.cfi_offset 5, -16
  92              		.cfi_offset 6, -12
  93              		.cfi_offset 7, -8
  94              		.cfi_offset 14, -4
  95 002e 2DED048B 		vpush.64	{d8, d9}
  96              		.cfi_def_cfa_offset 36
  97              		.cfi_offset 80, -36
  98              		.cfi_offset 81, -32
  99              		.cfi_offset 82, -28
 100              		.cfi_offset 83, -24
 101              		.loc 1 80 0
 102 0032 9D4B     		ldr	r3, .L33
 103              		.loc 1 83 0
 104 0034 8588     		ldrh	r5, [r0, #4]
 105              		.loc 1 80 0
 106 0036 1E7E     		ldrb	r6, [r3, #24]	@ zero_extendqisi2
 107              	.LVL3:
 108              	.LBB134:
 109              	.LBB135:
 110              	.LBB136:
 111              	.LBB137:
 112              		.file 2 "../../inc/utils/float_math.h"
 113              		.loc 2 826 0
 114 0038 9FED9C7A 		vldr.32	s14, .L33+4
ARM GAS  /var/folders/d_/x0b_rdwx29g9l484w35tgyc80000gn/T//cc7CT62k.s 			page 3


 115              	.LBE137:
 116              	.LBE136:
 117              	.LBE135:
 118              	.LBE134:
 119              		.loc 1 86 0
 120 003c D3ED020A 		vldr.32	s1, [r3, #8]
 121              		.loc 1 87 0
 122 0040 93ED034A 		vldr.32	s8, [r3, #12]
 123              		.loc 1 88 0
 124 0044 93ED070A 		vldr.32	s0, [r3, #28]
 125              		.loc 1 89 0
 126 0048 93ED088A 		vldr.32	s16, [r3, #32]
 127              		.loc 1 90 0
 128 004c D3ED093A 		vldr.32	s7, [r3, #36]
 129              		.loc 1 81 0
 130 0050 0024     		movs	r4, #0
 131 0052 1C76     		strb	r4, [r3, #24]
 132              		.loc 1 83 0
 133 0054 2C12     		asrs	r4, r5, #8
 134              	.LBB163:
 135              	.LBB160:
 136              	.LBB141:
 137              	.LBB142:
 138              		.file 3 "../../inc/osc_api.h"
 139              		.loc 3 115 0
 140 0056 962C     		cmp	r4, #150
 141 0058 D8BF     		it	le
 142 005a 2746     		movle	r7, r4
 143              	.LBE142:
 144              	.LBE141:
 145              	.LBE160:
 146              	.LBE163:
 147              		.loc 1 83 0
 148 005c EDB2     		uxtb	r5, r5
 149              	.LBB164:
 150              	.LBB161:
 151              		.loc 3 126 0
 152 005e 04F10104 		add	r4, r4, #1
 153 0062 E4B2     		uxtb	r4, r4
 154              	.LBE161:
 155              	.LBE164:
 156              		.loc 1 83 0
 157 0064 07EE905A 		vmov	s15, r5	@ int
 158              	.LVL4:
 159              	.LBB165:
 160              	.LBB162:
 161              	.LBB146:
 162              	.LBB143:
 163              		.loc 3 115 0
 164 0068 C8BF     		it	gt
 165 006a 9727     		movgt	r7, #151
 166              	.LVL5:
 167 006c 904D     		ldr	r5, .L33+8
 168              	.LVL6:
 169              	.LBE143:
 170              	.LBE146:
 171              	.LBB147:
ARM GAS  /var/folders/d_/x0b_rdwx29g9l484w35tgyc80000gn/T//cc7CT62k.s 			page 4


 172              	.LBB148:
 173 006e 962C     		cmp	r4, #150
 174 0070 88BF     		it	hi
 175 0072 9724     		movhi	r4, #151
 176              	.LBE148:
 177              	.LBE147:
 178              	.LBB150:
 179              	.LBB138:
 180              		.loc 2 826 0
 181 0074 F8EEE77A 		vcvt.f32.s32	s15, s15
 182              	.LVL7:
 183              	.LBE138:
 184              	.LBE150:
 185              	.LBB151:
 186              	.LBB144:
 187              		.loc 3 115 0
 188 0078 05EB8707 		add	r7, r5, r7, lsl #2
 189              	.LBE144:
 190              	.LBE151:
 191              	.LBB152:
 192              	.LBB149:
 193 007c 05EB8404 		add	r4, r5, r4, lsl #2
 194              	.LBE149:
 195              	.LBE152:
 196              	.LBB153:
 197              	.LBB139:
 198              		.loc 2 826 0
 199 0080 67EE877A 		vmul.f32	s15, s15, s14
 200              	.LBE139:
 201              	.LBE153:
 202              	.LBB154:
 203              	.LBB145:
 204              		.loc 3 115 0
 205 0084 D7ED005A 		vldr.32	s11, [r7]
 206              	.LVL8:
 207              	.LBE145:
 208              	.LBE154:
 209              	.LBB155:
 210              	.LBB140:
 211              		.loc 2 826 0
 212 0088 94ED007A 		vldr.32	s14, [r4]
 213 008c 37EE657A 		vsub.f32	s14, s14, s11
 214 0090 E7EE875A 		vfma.f32	s11, s15, s14
 215              	.LVL9:
 216              	.LBE140:
 217              	.LBE155:
 218              	.LBB156:
 219              	.LBB157:
 220              	.LBB158:
 221              	.LBB159:
 222              		.loc 2 193 0
 223 0094 DFED877A 		vldr.32	s15, .L33+12
 224 0098 F4EEE75A 		vcmpe.f32	s11, s15
 225 009c F1EE10FA 		vmrs	APSR_nzcv, FPSCR
 226 00a0 A8BF     		it	ge
 227 00a2 F0EE675A 		vmovge.f32	s11, s15
 228              	.LVL10:
ARM GAS  /var/folders/d_/x0b_rdwx29g9l484w35tgyc80000gn/T//cc7CT62k.s 			page 5


 229              	.LBE159:
 230              	.LBE158:
 231              	.LBE157:
 232              	.LBE156:
 233              		.loc 3 130 0
 234 00a6 DFED847A 		vldr.32	s15, .L33+16
 235 00aa 65EEA75A 		vmul.f32	s11, s11, s15
 236              	.LVL11:
 237              	.LBE162:
 238              	.LBE165:
 239              		.loc 1 92 0
 240 00ae D0ED007A 		vldr.32	s15, [r0]	@ int
 241              		.loc 1 83 0
 242 00b2 C3ED005A 		vstr.32	s11, [r3]
 243              	.LVL12:
 244              		.loc 1 92 0
 245 00b6 FAEEE07A 		vcvt.f32.s32	s15, s15, #31
 246              		.loc 1 84 0
 247 00ba 16F00106 		ands	r6, r6, #1
 248              	.LVL13:
 249 00be 0CBF     		ite	eq
 250 00c0 93ED016A 		vldreq.32	s12, [r3, #4]
 251 00c4 9FED7D6A 		vldrne.32	s12, .L33+20
 252              	.LVL14:
 253              		.loc 1 92 0
 254 00c8 C3ED047A 		vstr.32	s15, [r3, #16]
 255              	.LVL15:
 256              		.loc 1 93 0
 257 00cc 1EB9     		cbnz	r6, .L24
 258              		.loc 1 93 0 is_stmt 0 discriminator 1
 259 00ce 7648     		ldr	r0, .L33
 260              	.LVL16:
 261 00d0 90ED055A 		vldr.32	s10, [r0, #20]
 262 00d4 01E0     		b	.L9
 263              	.LVL17:
 264              	.L24:
 265              		.loc 1 93 0
 266 00d6 B0EE675A 		vmov.f32	s10, s15
 267              	.LVL18:
 268              	.L9:
 269              		.loc 1 94 0 is_stmt 1 discriminator 4
 270 00da 07EE102A 		vmov	s14, r2	@ int
 271 00de 77EEC57A 		vsub.f32	s15, s15, s10
 272              	.LVL19:
 273 00e2 B8EE477A 		vcvt.f32.u32	s14, s14
 274              	.LBB166:
 275              	.LBB167:
 276              	.LBB168:
 277              	.LBB169:
 278              		.loc 3 160 0 discriminator 4
 279 00e6 9FED763A 		vldr.32	s6, .L33+24
 280              		.loc 3 166 0 discriminator 4
 281 00ea 764D     		ldr	r5, .L33+28
 282              	.LBE169:
 283              	.LBE168:
 284              		.loc 1 102 0 discriminator 4
 285 00ec DFED738A 		vldr.32	s17, .L33+20
ARM GAS  /var/folders/d_/x0b_rdwx29g9l484w35tgyc80000gn/T//cc7CT62k.s 			page 6


 286              		.loc 1 106 0 discriminator 4
 287 00f0 9FED751A 		vldr.32	s2, .L33+32
 288 00f4 DFED751A 		vldr.32	s3, .L33+36
 289              	.LBE167:
 290              	.LBE166:
 291              		.loc 1 94 0 discriminator 4
 292 00f8 87EE872A 		vdiv.f32	s4, s15, s14
 293              	.LVL20:
 294              		.loc 1 97 0 discriminator 4
 295 00fc 01EB8202 		add	r2, r1, r2, lsl #2
 296              	.LVL21:
 297 0100 2C46     		mov	r4, r5
 298 0102 F0EE432A 		vmov.f32	s5, s6
 299              	.LBB222:
 300              	.LBB220:
 301              		.loc 1 103 0 discriminator 4
 302 0106 F7EE004A 		vmov.f32	s9, #1.0e+0
 303              	.LBB184:
 304              	.LBB185:
 305              	.LBB186:
 306              	.LBB187:
 307              	.LBB188:
 308              	.LBB189:
 309              		.loc 2 193 0 discriminator 4
 310 010a BFEE009A 		vmov.f32	s18, #-1.0e+0
 311              	.LVL22:
 312              	.L19:
 313              	.LBE189:
 314              	.LBE188:
 315              	.LBE187:
 316              	.LBE186:
 317              	.LBE185:
 318              	.LBE184:
 319              	.LBE220:
 320              		.loc 1 99 0
 321 010e 9142     		cmp	r1, r2
 322 0110 00F0C280 		beq	.L10
 323              	.LBB221:
 324              	.LBB195:
 325              	.LBB180:
 326              		.loc 3 160 0
 327 0114 FCEEC67A 		vcvt.u32.f32	s15, s12
 328              	.LBE180:
 329              	.LBE195:
 330              		.loc 1 100 0
 331 0118 F0EE449A 		vmov.f32	s19, s8
 332              	.LBB196:
 333              	.LBB181:
 334              		.loc 3 160 0
 335 011c F8EE677A 		vcvt.f32.u32	s15, s15
 336              	.LBE181:
 337              	.LBE196:
 338              		.loc 1 100 0
 339 0120 E5EE049A 		vfma.f32	s19, s10, s8
 340              	.LVL23:
 341              	.LBB197:
 342              	.LBB182:
ARM GAS  /var/folders/d_/x0b_rdwx29g9l484w35tgyc80000gn/T//cc7CT62k.s 			page 7


 343              		.loc 3 160 0
 344 0124 76EE677A 		vsub.f32	s15, s12, s15
 345 0128 67EE837A 		vmul.f32	s15, s15, s6
 346              	.LVL24:
 347              		.loc 3 161 0
 348 012c BCEEE77A 		vcvt.u32.f32	s14, s15
 349 0130 17EE106A 		vmov	r6, s14	@ int
 350              	.LVL25:
 351              		.loc 3 163 0
 352 0134 06F07F00 		and	r0, r6, #127
 353              	.LVL26:
 354              	.LBB170:
 355              	.LBB171:
 356              		.loc 2 826 0
 357 0138 06EE906A 		vmov	s13, r6	@ int
 358              	.LBE171:
 359              	.LBE170:
 360              		.loc 3 166 0
 361 013c 05EB8007 		add	r7, r5, r0, lsl #2
 362 0140 0130     		adds	r0, r0, #1
 363              	.LVL27:
 364              	.LBB176:
 365              	.LBB172:
 366              		.loc 2 826 0
 367 0142 F8EE666A 		vcvt.f32.u32	s13, s13
 368              	.LBE172:
 369              	.LBE176:
 370              		.loc 3 166 0
 371 0146 00F07F00 		and	r0, r0, #127
 372              	.LVL28:
 373 014a 05EB8000 		add	r0, r5, r0, lsl #2
 374              	.LVL29:
 375 014e 97ED007A 		vldr.32	s14, [r7]
 376              	.LVL30:
 377              	.LBB177:
 378              	.LBB173:
 379              		.loc 2 826 0
 380 0152 77EEE67A 		vsub.f32	s15, s15, s13
 381              	.LVL31:
 382 0156 D0ED006A 		vldr.32	s13, [r0]
 383 015a 76EEC76A 		vsub.f32	s13, s13, s14
 384              	.LBE173:
 385              	.LBE177:
 386              		.loc 3 167 0
 387 015e 7F2E     		cmp	r6, #127
 388              	.LBB178:
 389              	.LBB174:
 390              		.loc 2 826 0
 391 0160 A7EEA67A 		vfma.f32	s14, s15, s13
 392              	.LVL32:
 393              	.LBE174:
 394              	.LBE178:
 395              	.LBE182:
 396              	.LBE197:
 397              		.loc 1 102 0
 398 0164 F0EE686A 		vmov.f32	s13, s17
 399              	.LBB198:
ARM GAS  /var/folders/d_/x0b_rdwx29g9l484w35tgyc80000gn/T//cc7CT62k.s 			page 8


 400              	.LBB183:
 401              	.LBB179:
 402              	.LBB175:
 403              		.loc 2 826 0
 404 0168 F0EE477A 		vmov.f32	s15, s14
 405              	.LVL33:
 406              	.LBE175:
 407              	.LBE179:
 408              		.loc 3 167 0
 409 016c 88BF     		it	hi
 410 016e F1EE477A 		vneghi.f32	s15, s14
 411              	.LVL34:
 412              	.LBE183:
 413              	.LBE198:
 414              		.loc 1 102 0
 415 0172 69EEA77A 		vmul.f32	s15, s19, s15
 416 0176 E9EEA76A 		vfma.f32	s13, s19, s15
 417 017a 76EE866A 		vadd.f32	s13, s13, s12
 418              	.LVL35:
 419              		.loc 1 103 0
 420 017e F5EEC06A 		vcmpe.f32	s13, #0
 421 0182 F1EE10FA 		vmrs	APSR_nzcv, FPSCR
 422 0186 89BF     		itett	hi
 423 0188 BCEEE67A 		vcvthi.u32.f32	s14, s13
 424 018c 74EEE66A 		vsubls.f32	s13, s9, s13
 425              	.LVL36:
 426 0190 B8EE477A 		vcvthi.f32.u32	s14, s14
 427 0194 76EEC76A 		vsubhi.f32	s13, s13, s14
 428              	.LVL37:
 429              		.loc 1 105 0
 430 0198 33EEA37A 		vadd.f32	s14, s7, s7
 431 019c 66EE807A 		vmul.f32	s15, s13, s0
 432 01a0 67EE266A 		vmul.f32	s13, s14, s13
 433              	.LVL38:
 434              	.LBB199:
 435              	.LBB200:
 436              		.loc 3 160 0
 437 01a4 BCEEE67A 		vcvt.u32.f32	s14, s13
 438 01a8 B8EE477A 		vcvt.f32.u32	s14, s14
 439 01ac 36EEC77A 		vsub.f32	s14, s13, s14
 440 01b0 27EE227A 		vmul.f32	s14, s14, s5
 441              	.LVL39:
 442              		.loc 3 161 0
 443 01b4 FCEEC76A 		vcvt.u32.f32	s13, s14
 444              	.LVL40:
 445 01b8 16EE906A 		vmov	r6, s13	@ int
 446              	.LVL41:
 447              		.loc 3 163 0
 448 01bc 06F07F00 		and	r0, r6, #127
 449              	.LVL42:
 450              	.LBB201:
 451              	.LBB202:
 452              		.loc 2 826 0
 453 01c0 09EE906A 		vmov	s19, r6	@ int
 454              	.LVL43:
 455              	.LBE202:
 456              	.LBE201:
ARM GAS  /var/folders/d_/x0b_rdwx29g9l484w35tgyc80000gn/T//cc7CT62k.s 			page 9


 457              		.loc 3 166 0
 458 01c4 04EB8007 		add	r7, r4, r0, lsl #2
 459 01c8 0130     		adds	r0, r0, #1
 460              	.LVL44:
 461              	.LBB206:
 462              	.LBB203:
 463              		.loc 2 826 0
 464 01ca F8EE699A 		vcvt.f32.u32	s19, s19
 465              	.LBE203:
 466              	.LBE206:
 467              		.loc 3 166 0
 468 01ce 00F07F00 		and	r0, r0, #127
 469              	.LVL45:
 470 01d2 04EB8000 		add	r0, r4, r0, lsl #2
 471              	.LVL46:
 472 01d6 D7ED006A 		vldr.32	s13, [r7]
 473              	.LVL47:
 474              	.LBB207:
 475              	.LBB204:
 476              		.loc 2 826 0
 477 01da 37EE697A 		vsub.f32	s14, s14, s19
 478              	.LVL48:
 479 01de D0ED009A 		vldr.32	s19, [r0]
 480 01e2 79EEE69A 		vsub.f32	s19, s19, s13
 481              	.LBE204:
 482              	.LBE207:
 483              		.loc 3 167 0
 484 01e6 7F2E     		cmp	r6, #127
 485              	.LBB208:
 486              	.LBB205:
 487              		.loc 2 826 0
 488 01e8 E7EE296A 		vfma.f32	s13, s14, s19
 489              	.LVL49:
 490 01ec B0EE667A 		vmov.f32	s14, s13
 491              	.LVL50:
 492              	.LBE205:
 493              	.LBE208:
 494              		.loc 3 167 0
 495 01f0 88BF     		it	hi
 496 01f2 B1EE667A 		vneghi.f32	s14, s13
 497              	.LVL51:
 498              	.LBE200:
 499              	.LBE199:
 500              		.loc 1 105 0
 501 01f6 E8EE077A 		vfma.f32	s15, s16, s14
 502              	.LVL52:
 503              	.LBB209:
 504              	.LBB210:
 505              		.loc 3 160 0
 506 01fa BCEEE77A 		vcvt.u32.f32	s14, s15
 507 01fe B8EE477A 		vcvt.f32.u32	s14, s14
 508 0202 37EEC77A 		vsub.f32	s14, s15, s14
 509 0206 27EE227A 		vmul.f32	s14, s14, s5
 510              	.LVL53:
 511              		.loc 3 161 0
 512 020a FCEEC77A 		vcvt.u32.f32	s15, s14
 513              	.LVL54:
ARM GAS  /var/folders/d_/x0b_rdwx29g9l484w35tgyc80000gn/T//cc7CT62k.s 			page 10


 514 020e 17EE906A 		vmov	r6, s15	@ int
 515              	.LVL55:
 516              		.loc 3 163 0
 517 0212 06F07F00 		and	r0, r6, #127
 518              	.LVL56:
 519              	.LBB211:
 520              	.LBB212:
 521              		.loc 2 826 0
 522 0216 06EE906A 		vmov	s13, r6	@ int
 523              	.LBE212:
 524              	.LBE211:
 525              		.loc 3 166 0
 526 021a 04EB8007 		add	r7, r4, r0, lsl #2
 527 021e 0130     		adds	r0, r0, #1
 528              	.LVL57:
 529              	.LBB216:
 530              	.LBB213:
 531              		.loc 2 826 0
 532 0220 F8EE666A 		vcvt.f32.u32	s13, s13
 533              	.LBE213:
 534              	.LBE216:
 535              		.loc 3 166 0
 536 0224 00F07F00 		and	r0, r0, #127
 537              	.LVL58:
 538 0228 04EB8000 		add	r0, r4, r0, lsl #2
 539              	.LVL59:
 540 022c D7ED007A 		vldr.32	s15, [r7]
 541              	.LVL60:
 542              	.LBB217:
 543              	.LBB214:
 544              		.loc 2 826 0
 545 0230 37EE667A 		vsub.f32	s14, s14, s13
 546              	.LVL61:
 547 0234 D0ED006A 		vldr.32	s13, [r0]
 548 0238 76EEE76A 		vsub.f32	s13, s13, s15
 549              	.LBE214:
 550              	.LBE217:
 551              		.loc 3 167 0
 552 023c 7F2E     		cmp	r6, #127
 553              	.LBB218:
 554              	.LBB215:
 555              		.loc 2 826 0
 556 023e E7EE267A 		vfma.f32	s15, s14, s13
 557              	.LVL62:
 558              	.LBE215:
 559              	.LBE218:
 560              		.loc 3 167 0
 561 0242 88BF     		it	hi
 562 0244 F1EE677A 		vneghi.f32	s15, s15
 563              	.LVL63:
 564              	.LBE210:
 565              	.LBE209:
 566              		.loc 1 105 0
 567 0248 60EEA77A 		vmul.f32	s15, s1, s15
 568              	.LVL64:
 569              	.LBB219:
 570              	.LBB194:
ARM GAS  /var/folders/d_/x0b_rdwx29g9l484w35tgyc80000gn/T//cc7CT62k.s 			page 11


 571              	.LBB193:
 572              	.LBB192:
 573              	.LBB191:
 574              	.LBB190:
 575              		.loc 2 193 0
 576 024c F4EEC97A 		vcmpe.f32	s15, s18
 577 0250 F1EE10FA 		vmrs	APSR_nzcv, FPSCR
 578 0254 07DB     		blt	.L31
 579              	.LVL65:
 580 0256 F4EEE47A 		vcmpe.f32	s15, s9
 581 025a F1EE10FA 		vmrs	APSR_nzcv, FPSCR
 582 025e A8BF     		it	ge
 583 0260 F0EE647A 		vmovge.f32	s15, s9
 584              	.LVL66:
 585 0264 01E0     		b	.L17
 586              	.LVL67:
 587              	.L31:
 588 0266 FFEE007A 		vmov.f32	s15, #-1.0e+0
 589              	.LVL68:
 590              	.L17:
 591              	.LBE190:
 592              	.LBE191:
 593              	.LBE192:
 594              	.LBE193:
 595              	.LBE194:
 596              	.LBE219:
 597              		.loc 1 106 0
 598 026a 27EEA77A 		vmul.f32	s14, s15, s15
 599              		.loc 1 108 0
 600 026e 36EE256A 		vadd.f32	s12, s12, s11
 601              	.LVL69:
 602              		.loc 1 106 0
 603 0272 27EEC77A 		vnmul.f32	s14, s15, s14
 604              		.loc 1 111 0
 605 0276 35EE025A 		vadd.f32	s10, s10, s4
 606              	.LVL70:
 607              		.loc 1 106 0
 608 027a E7EE017A 		vfma.f32	s15, s14, s2
 609 027e 67EEA17A 		vmul.f32	s15, s15, s3
 610 0282 FDEEE77A 		vcvt.s32.f32	s15, s15
 611 0286 E1EC017A 		vstmia.32	r1!, {s15}	@ int
 612              	.LVL71:
 613              		.loc 1 109 0
 614 028a FCEEC67A 		vcvt.u32.f32	s15, s12
 615 028e F8EE677A 		vcvt.f32.u32	s15, s15
 616 0292 36EE676A 		vsub.f32	s12, s12, s15
 617              	.LVL72:
 618              	.LBE221:
 619              		.loc 1 99 0
 620 0296 3AE7     		b	.L19
 621              	.LVL73:
 622              	.L10:
 623              	.LBE222:
 624              		.loc 1 116 0
 625 0298 BDEC048B 		vldm	sp!, {d8-d9}
 626              		.cfi_restore 82
 627              		.cfi_restore 83
ARM GAS  /var/folders/d_/x0b_rdwx29g9l484w35tgyc80000gn/T//cc7CT62k.s 			page 12


 628              		.cfi_restore 80
 629              		.cfi_restore 81
 630              		.cfi_def_cfa_offset 20
 631              	.LVL74:
 632              		.loc 1 114 0
 633 029c 83ED016A 		vstr.32	s12, [r3, #4]
 634              		.loc 1 115 0
 635 02a0 83ED055A 		vstr.32	s10, [r3, #20]
 636              		.loc 1 116 0
 637 02a4 F0BD     		pop	{r4, r5, r6, r7, pc}
 638              	.L34:
 639 02a6 00BF     		.align	2
 640              	.L33:
 641 02a8 00000000 		.word	.LANCHOR0
 642 02ac 8180803B 		.word	998277249
 643 02b0 00000000 		.word	midi_to_hz_lut_f
 644 02b4 49FFB846 		.word	1186529097
 645 02b8 3EC3AE37 		.word	934200126
 646 02bc 00000000 		.word	0
 647 02c0 00008043 		.word	1132462080
 648 02c4 00000000 		.word	wt_sine_lut_f
 649 02c8 CDCC4C3D 		.word	1028443341
 650 02cc 0000004F 		.word	1325400064
 651              		.cfi_endproc
 652              	.LFE240:
 653              		.size	_hook_cycle, .-_hook_cycle
 654              		.align	1
 655              		.global	_hook_on
 656              		.thumb
 657              		.thumb_func
 658              		.type	_hook_on, %function
 659              	_hook_on:
 660              	.LFB241:
 661              		.loc 1 119 0
 662              		.cfi_startproc
 663              		@ args = 0, pretend = 0, frame = 0
 664              		@ frame_needed = 0, uses_anonymous_args = 0
 665              		@ link register save eliminated.
 666              	.LVL75:
 667              		.loc 1 120 0
 668 02d0 024A     		ldr	r2, .L36
 669 02d2 137E     		ldrb	r3, [r2, #24]	@ zero_extendqisi2
 670 02d4 43F00103 		orr	r3, r3, #1
 671 02d8 1376     		strb	r3, [r2, #24]
 672 02da 7047     		bx	lr
 673              	.L37:
 674              		.align	2
 675              	.L36:
 676 02dc 00000000 		.word	.LANCHOR0
 677              		.cfi_endproc
 678              	.LFE241:
 679              		.size	_hook_on, .-_hook_on
 680              		.align	1
 681              		.global	_hook_off
 682              		.thumb
 683              		.thumb_func
 684              		.type	_hook_off, %function
ARM GAS  /var/folders/d_/x0b_rdwx29g9l484w35tgyc80000gn/T//cc7CT62k.s 			page 13


 685              	_hook_off:
 686              	.LFB242:
 687              		.loc 1 124 0
 688              		.cfi_startproc
 689              		@ args = 0, pretend = 0, frame = 0
 690              		@ frame_needed = 0, uses_anonymous_args = 0
 691              		@ link register save eliminated.
 692              	.LVL76:
 693 02e0 7047     		bx	lr
 694              		.cfi_endproc
 695              	.LFE242:
 696              		.size	_hook_off, .-_hook_off
 697              		.align	1
 698              		.global	_hook_param
 699              		.thumb
 700              		.thumb_func
 701              		.type	_hook_param, %function
 702              	_hook_param:
 703              	.LFB243:
 704              		.loc 1 129 0
 705              		.cfi_startproc
 706              		@ args = 0, pretend = 0, frame = 0
 707              		@ frame_needed = 0, uses_anonymous_args = 0
 708              		@ link register save eliminated.
 709              	.LVL77:
 710              		.loc 1 130 0
 711 02e2 07EE901A 		vmov	s15, r1	@ int
 712 02e6 9FED5A7A 		vldr.32	s14, .L86
 713 02ea F8EEE77A 		vcvt.f32.s32	s15, s15
 714 02ee 27EE877A 		vmul.f32	s14, s15, s14
 715              	.LVL78:
 716              		.loc 1 132 0
 717 02f2 0728     		cmp	r0, #7
 718 02f4 00F2AB80 		bhi	.L39
 719 02f8 DFE800F0 		tbb	[pc, r0]
 720              	.L42:
 721 02fc 04       		.byte	(.L41-.L42)/2
 722 02fd 1D       		.byte	(.L43-.L42)/2
 723 02fe 36       		.byte	(.L44-.L42)/2
 724 02ff 4F       		.byte	(.L45-.L42)/2
 725 0300 68       		.byte	(.L46-.L42)/2
 726 0301 81       		.byte	(.L47-.L42)/2
 727 0302 9A       		.byte	(.L48-.L42)/2
 728 0303 A2       		.byte	(.L49-.L42)/2
 729              		.p2align 1
 730              	.L41:
 731              		.loc 1 134 0
 732 0304 9FED537A 		vldr.32	s14, .L86+4
 733              	.LVL79:
 734 0308 67EE877A 		vmul.f32	s15, s15, s14
 735              	.LVL80:
 736              	.LBB223:
 737              	.LBB224:
 738              	.LBB225:
 739              	.LBB226:
 740              		.loc 2 193 0
 741 030c F5EEC07A 		vcmpe.f32	s15, #0
ARM GAS  /var/folders/d_/x0b_rdwx29g9l484w35tgyc80000gn/T//cc7CT62k.s 			page 14


 742 0310 F1EE10FA 		vmrs	APSR_nzcv, FPSCR
 743 0314 09DB     		blt	.L80
 744              	.LVL81:
 745              	.LBE226:
 746              	.LBE225:
 747              	.LBB228:
 748              	.LBB229:
 749 0316 B7EE007A 		vmov.f32	s14, #1.0e+0
 750              	.LBE229:
 751              	.LBE228:
 752              	.LBB230:
 753              	.LBB227:
 754 031a F4EEC77A 		vcmpe.f32	s15, s14
 755 031e F1EE10FA 		vmrs	APSR_nzcv, FPSCR
 756 0322 A8BF     		it	ge
 757 0324 F0EE477A 		vmovge.f32	s15, s14
 758              	.LVL82:
 759 0328 01E0     		b	.L50
 760              	.LVL83:
 761              	.L80:
 762 032a DFED4B7A 		vldr.32	s15, .L86+8
 763              	.LVL84:
 764              	.L50:
 765              	.LBE227:
 766              	.LBE230:
 767              	.LBE224:
 768              	.LBE223:
 769              		.loc 1 134 0
 770 032e 4B4B     		ldr	r3, .L86+12
 771 0330 C3ED077A 		vstr.32	s15, [r3, #28]
 772              		.loc 1 135 0
 773 0334 7047     		bx	lr
 774              	.LVL85:
 775              	.L43:
 776              		.loc 1 137 0
 777 0336 9FED477A 		vldr.32	s14, .L86+4
 778              	.LVL86:
 779 033a 67EE877A 		vmul.f32	s15, s15, s14
 780              	.LVL87:
 781              	.LBB231:
 782              	.LBB232:
 783              	.LBB233:
 784              	.LBB234:
 785              		.loc 2 193 0
 786 033e F5EEC07A 		vcmpe.f32	s15, #0
 787 0342 F1EE10FA 		vmrs	APSR_nzcv, FPSCR
 788 0346 09DB     		blt	.L81
 789              	.LVL88:
 790              	.LBE234:
 791              	.LBE233:
 792              	.LBB236:
 793              	.LBB237:
 794 0348 B7EE007A 		vmov.f32	s14, #1.0e+0
 795              	.LBE237:
 796              	.LBE236:
 797              	.LBB238:
 798              	.LBB235:
ARM GAS  /var/folders/d_/x0b_rdwx29g9l484w35tgyc80000gn/T//cc7CT62k.s 			page 15


 799 034c F4EEC77A 		vcmpe.f32	s15, s14
 800 0350 F1EE10FA 		vmrs	APSR_nzcv, FPSCR
 801 0354 A8BF     		it	ge
 802 0356 F0EE477A 		vmovge.f32	s15, s14
 803              	.LVL89:
 804 035a 01E0     		b	.L52
 805              	.LVL90:
 806              	.L81:
 807 035c DFED3E7A 		vldr.32	s15, .L86+8
 808              	.LVL91:
 809              	.L52:
 810              	.LBE235:
 811              	.LBE238:
 812              	.LBE232:
 813              	.LBE231:
 814              		.loc 1 137 0
 815 0360 3E4B     		ldr	r3, .L86+12
 816 0362 C3ED087A 		vstr.32	s15, [r3, #32]
 817              		.loc 1 138 0
 818 0366 7047     		bx	lr
 819              	.LVL92:
 820              	.L44:
 821              		.loc 1 140 0
 822 0368 9FED3A7A 		vldr.32	s14, .L86+4
 823              	.LVL93:
 824 036c 67EE877A 		vmul.f32	s15, s15, s14
 825              	.LVL94:
 826              	.LBB239:
 827              	.LBB240:
 828              	.LBB241:
 829              	.LBB242:
 830              		.loc 2 193 0
 831 0370 F5EEC07A 		vcmpe.f32	s15, #0
 832 0374 F1EE10FA 		vmrs	APSR_nzcv, FPSCR
 833 0378 09DB     		blt	.L82
 834              	.LVL95:
 835              	.LBE242:
 836              	.LBE241:
 837              	.LBB244:
 838              	.LBB245:
 839 037a B7EE007A 		vmov.f32	s14, #1.0e+0
 840              	.LBE245:
 841              	.LBE244:
 842              	.LBB246:
 843              	.LBB243:
 844 037e F4EEC77A 		vcmpe.f32	s15, s14
 845 0382 F1EE10FA 		vmrs	APSR_nzcv, FPSCR
 846 0386 A8BF     		it	ge
 847 0388 F0EE477A 		vmovge.f32	s15, s14
 848              	.LVL96:
 849 038c 01E0     		b	.L54
 850              	.LVL97:
 851              	.L82:
 852 038e DFED327A 		vldr.32	s15, .L86+8
 853              	.LVL98:
 854              	.L54:
 855              	.LBE243:
ARM GAS  /var/folders/d_/x0b_rdwx29g9l484w35tgyc80000gn/T//cc7CT62k.s 			page 16


 856              	.LBE246:
 857              	.LBE240:
 858              	.LBE239:
 859              		.loc 1 140 0
 860 0392 324B     		ldr	r3, .L86+12
 861 0394 C3ED097A 		vstr.32	s15, [r3, #36]
 862              		.loc 1 141 0
 863 0398 7047     		bx	lr
 864              	.LVL99:
 865              	.L45:
 866              		.loc 1 143 0
 867 039a 9FED2E7A 		vldr.32	s14, .L86+4
 868              	.LVL100:
 869 039e 67EE877A 		vmul.f32	s15, s15, s14
 870              	.LVL101:
 871              	.LBB247:
 872              	.LBB248:
 873              	.LBB249:
 874              	.LBB250:
 875              		.loc 2 193 0
 876 03a2 F5EEC07A 		vcmpe.f32	s15, #0
 877 03a6 F1EE10FA 		vmrs	APSR_nzcv, FPSCR
 878 03aa 09DB     		blt	.L83
 879              	.LVL102:
 880              	.LBE250:
 881              	.LBE249:
 882              	.LBB252:
 883              	.LBB253:
 884 03ac B7EE007A 		vmov.f32	s14, #1.0e+0
 885              	.LBE253:
 886              	.LBE252:
 887              	.LBB254:
 888              	.LBB251:
 889 03b0 F4EEC77A 		vcmpe.f32	s15, s14
 890 03b4 F1EE10FA 		vmrs	APSR_nzcv, FPSCR
 891 03b8 A8BF     		it	ge
 892 03ba F0EE477A 		vmovge.f32	s15, s14
 893              	.LVL103:
 894 03be 01E0     		b	.L56
 895              	.LVL104:
 896              	.L83:
 897 03c0 DFED257A 		vldr.32	s15, .L86+8
 898              	.LVL105:
 899              	.L56:
 900              	.LBE251:
 901              	.LBE254:
 902              	.LBE248:
 903              	.LBE247:
 904              		.loc 1 143 0
 905 03c4 254B     		ldr	r3, .L86+12
 906 03c6 C3ED0A7A 		vstr.32	s15, [r3, #40]
 907              		.loc 1 144 0
 908 03ca 7047     		bx	lr
 909              	.LVL106:
 910              	.L46:
 911              		.loc 1 146 0
 912 03cc 9FED217A 		vldr.32	s14, .L86+4
ARM GAS  /var/folders/d_/x0b_rdwx29g9l484w35tgyc80000gn/T//cc7CT62k.s 			page 17


 913              	.LVL107:
 914 03d0 67EE877A 		vmul.f32	s15, s15, s14
 915              	.LVL108:
 916              	.LBB255:
 917              	.LBB256:
 918              	.LBB257:
 919              	.LBB258:
 920              		.loc 2 193 0
 921 03d4 F5EEC07A 		vcmpe.f32	s15, #0
 922 03d8 F1EE10FA 		vmrs	APSR_nzcv, FPSCR
 923 03dc 09DB     		blt	.L84
 924              	.LVL109:
 925              	.LBE258:
 926              	.LBE257:
 927              	.LBB260:
 928              	.LBB261:
 929 03de B7EE007A 		vmov.f32	s14, #1.0e+0
 930              	.LBE261:
 931              	.LBE260:
 932              	.LBB262:
 933              	.LBB259:
 934 03e2 F4EEC77A 		vcmpe.f32	s15, s14
 935 03e6 F1EE10FA 		vmrs	APSR_nzcv, FPSCR
 936 03ea A8BF     		it	ge
 937 03ec F0EE477A 		vmovge.f32	s15, s14
 938              	.LVL110:
 939 03f0 01E0     		b	.L58
 940              	.LVL111:
 941              	.L84:
 942 03f2 DFED197A 		vldr.32	s15, .L86+8
 943              	.LVL112:
 944              	.L58:
 945              	.LBE259:
 946              	.LBE262:
 947              	.LBE256:
 948              	.LBE255:
 949              		.loc 1 146 0
 950 03f6 194B     		ldr	r3, .L86+12
 951 03f8 C3ED0B7A 		vstr.32	s15, [r3, #44]
 952              		.loc 1 147 0
 953 03fc 7047     		bx	lr
 954              	.LVL113:
 955              	.L47:
 956              		.loc 1 149 0
 957 03fe 9FED157A 		vldr.32	s14, .L86+4
 958              	.LVL114:
 959 0402 67EE877A 		vmul.f32	s15, s15, s14
 960              	.LVL115:
 961              	.LBB263:
 962              	.LBB264:
 963              	.LBB265:
 964              	.LBB266:
 965              		.loc 2 193 0
 966 0406 F5EEC07A 		vcmpe.f32	s15, #0
 967 040a F1EE10FA 		vmrs	APSR_nzcv, FPSCR
 968 040e 09DB     		blt	.L85
 969              	.LVL116:
ARM GAS  /var/folders/d_/x0b_rdwx29g9l484w35tgyc80000gn/T//cc7CT62k.s 			page 18


 970              	.LBE266:
 971              	.LBE265:
 972              	.LBB268:
 973              	.LBB269:
 974 0410 B7EE007A 		vmov.f32	s14, #1.0e+0
 975              	.LBE269:
 976              	.LBE268:
 977              	.LBB270:
 978              	.LBB267:
 979 0414 F4EEC77A 		vcmpe.f32	s15, s14
 980 0418 F1EE10FA 		vmrs	APSR_nzcv, FPSCR
 981 041c A8BF     		it	ge
 982 041e F0EE477A 		vmovge.f32	s15, s14
 983              	.LVL117:
 984 0422 01E0     		b	.L60
 985              	.LVL118:
 986              	.L85:
 987 0424 DFED0C7A 		vldr.32	s15, .L86+8
 988              	.LVL119:
 989              	.L60:
 990              	.LBE267:
 991              	.LBE270:
 992              	.LBE264:
 993              	.LBE263:
 994              		.loc 1 149 0
 995 0428 0C4B     		ldr	r3, .L86+12
 996 042a C3ED0C7A 		vstr.32	s15, [r3, #48]
 997              		.loc 1 150 0
 998 042e 7047     		bx	lr
 999              	.LVL120:
 1000              	.L48:
 1001              		.loc 1 152 0
 1002 0430 DFED0B7A 		vldr.32	s15, .L86+16
 1003 0434 094B     		ldr	r3, .L86+12
 1004 0436 27EE277A 		vmul.f32	s14, s14, s15
 1005              	.LVL121:
 1006 043a 83ED037A 		vstr.32	s14, [r3, #12]
 1007              		.loc 1 153 0
 1008 043e 7047     		bx	lr
 1009              	.LVL122:
 1010              	.L49:
 1011              		.loc 1 155 0
 1012 0440 F7EE007A 		vmov.f32	s15, #1.0e+0
 1013 0444 37EE277A 		vadd.f32	s14, s14, s15
 1014              	.LVL123:
 1015 0448 044B     		ldr	r3, .L86+12
 1016 044a 83ED027A 		vstr.32	s14, [r3, #8]
 1017              	.L39:
 1018 044e 7047     		bx	lr
 1019              	.L87:
 1020              		.align	2
 1021              	.L86:
 1022 0450 0820803A 		.word	981475336
 1023 0454 0AD7233C 		.word	1008981770
 1024 0458 00000000 		.word	0
 1025 045c 00000000 		.word	.LANCHOR0
 1026 0460 9A99993E 		.word	1050253722
ARM GAS  /var/folders/d_/x0b_rdwx29g9l484w35tgyc80000gn/T//cc7CT62k.s 			page 19


 1027              		.cfi_endproc
 1028              	.LFE243:
 1029              		.size	_hook_param, .-_hook_param
 1030              		.bss
 1031              		.align	2
 1032              		.set	.LANCHOR0,. + 0
 1033              		.type	_ZL7s_state, %object
 1034              		.size	_ZL7s_state, 52
 1035              	_ZL7s_state:
 1036 0000 00000000 		.space	52
 1036      00000000 
 1036      00000000 
 1036      00000000 
 1036      00000000 
 1037              		.text
 1038              	.Letext0:
 1039              		.file 4 "/Users/kei/Documents/Dev/korg/logue-sdk/tools/gcc/gcc-arm-none-eabi-5_4-2016q3/arm-none-e
 1040              		.file 5 "/Users/kei/Documents/Dev/korg/logue-sdk/tools/gcc/gcc-arm-none-eabi-5_4-2016q3/arm-none-e
 1041              		.file 6 "../../../ext/CMSIS/CMSIS/Include/arm_math.h"
 1042              		.file 7 "../../inc/userosc.h"
 1043              		.file 8 "../../inc/userprg.h"
 1044              		.file 9 "../../inc/utils/int_math.h"